target datalayout = "e-m:e-p270:32:32-p271:32:32-p272:64:64-i64:64-i128:128-f80:128-n8:16:32:64-S128"
target triple = "x86_64-pc-linux-gnu"

%struct.expert_field = type { i32, i32 }

@hf_ip_opt_sec_rfc791_sec = internal global i32 0, align 4
@hf_ip_opt_sec_rfc791_comp = internal global i32 0, align 4
@hf_ip_opt_sec_rfc791_hr = internal global i32 0, align 4
@hf_ip_opt_sec_rfc791_tcc = internal global i32 0, align 4
@hf_ip_opt_sec_cl = internal global i32 0, align 4
@hf_ip_opt_sec_prot_auth_flags = internal global i32 0, align 4
@ett_ip_option_sec = internal global i32 0, align 4
@ett_ip_opt_sec_prot_auth_flags = internal global i32 0, align 4
@ei_ip_opt_sec_prot_auth_fti = internal global %struct.expert_field zeroinitializer, align 4
@ei_ip_extraneous_data = internal global %struct.expert_field zeroinitializer, align 4
@proto_ip_option_security = internal global i32 0, align 4
@ip_opt_sec_prot_auth_fields_byte_n = internal constant [3 x ptr] [ptr @hf_ip_opt_sec_prot_auth_unassigned2, ptr @hf_ip_opt_sec_prot_auth_fti, ptr null], align 16

; Function Attrs: null_pointer_is_valid sspstrong uwtable
define internal i32 @dissect_ipopt_security(ptr noundef %0, ptr noundef %1, ptr noundef %2, ptr noundef %3) #1 {
  %5 = alloca i32, align 4
  %6 = alloca ptr, align 8
  %7 = alloca ptr, align 8
  %8 = alloca ptr, align 8
  %9 = alloca ptr, align 8
  %10 = alloca ptr, align 8
  %11 = alloca ptr, align 8
  %12 = alloca i32, align 4
  %13 = alloca i32, align 4
  %14 = alloca i32, align 4
  %15 = alloca i32, align 4
  store ptr %0, ptr %6, align 8
  store ptr %1, ptr %7, align 8
  store ptr %2, ptr %8, align 8
  store ptr %3, ptr %9, align 8
  call void @llvm.lifetime.start.p0(i64 8, ptr %10) #12
  call void @llvm.lifetime.start.p0(i64 8, ptr %11) #12
  call void @llvm.lifetime.start.p0(i64 4, ptr %12) #12
  call void @llvm.lifetime.start.p0(i64 4, ptr %13) #12
  store i32 2, ptr %13, align 4
  call void @llvm.lifetime.start.p0(i64 4, ptr %14) #12
  %16 = load ptr, ptr %6, align 8
  %17 = call i32 @tvb_reported_length(ptr noundef %16)
  store i32 %17, ptr %14, align 4
  %18 = load ptr, ptr %8, align 8
  %19 = load ptr, ptr %7, align 8
  %20 = load ptr, ptr %6, align 8
  %21 = load i32, ptr @proto_ip_option_security, align 4
  %22 = load i32, ptr @ett_ip_option_sec, align 4
  %23 = load i32, ptr %14, align 4
  %24 = call ptr @ip_var_option_header(ptr noundef %18, ptr noundef %19, ptr noundef %20, i32 noundef %21, i32 noundef %22, ptr noundef %11, i32 noundef %23)
  store ptr %24, ptr %10, align 8
  %25 = load i32, ptr %14, align 4
  %26 = icmp eq i32 %25, 11
  br i1 %26, label %27, label %64

27:                                               ; preds = %4
  %28 = load ptr, ptr %6, align 8
  %29 = load i32, ptr %13, align 4
  %30 = call zeroext i16 @tvb_get_ntohs(ptr noundef %28, i32 noundef %29)
  %31 = zext i16 %30 to i32
  store i32 %31, ptr %12, align 4
  %32 = load i32, ptr %12, align 4
  %33 = call ptr @try_val_to_str(i32 noundef %32, ptr noundef @secl_rfc791_vals)
  %34 = icmp ne ptr %33, null
  br i1 %34, label %35, label %63

35:                                               ; preds = %27
  %36 = load ptr, ptr %10, align 8
  %37 = load i32, ptr @hf_ip_opt_sec_rfc791_sec, align 4
  %38 = load ptr, ptr %6, align 8
  %39 = load i32, ptr %13, align 4
  %40 = call ptr @proto_tree_add_item(ptr noundef %36, i32 noundef %37, ptr noundef %38, i32 noundef %39, i32 noundef 2, i32 noundef 0)
  %41 = load i32, ptr %13, align 4
  %42 = add i32 %41, 2
  store i32 %42, ptr %13, align 4
  %43 = load ptr, ptr %10, align 8
  %44 = load i32, ptr @hf_ip_opt_sec_rfc791_comp, align 4
  %45 = load ptr, ptr %6, align 8
  %46 = load i32, ptr %13, align 4
  %47 = call ptr @proto_tree_add_item(ptr noundef %43, i32 noundef %44, ptr noundef %45, i32 noundef %46, i32 noundef 2, i32 noundef 0)
  %48 = load i32, ptr %13, align 4
  %49 = add i32 %48, 2
  store i32 %49, ptr %13, align 4
  %50 = load ptr, ptr %10, align 8
  %51 = load i32, ptr @hf_ip_opt_sec_rfc791_hr, align 4
  %52 = load ptr, ptr %6, align 8
  %53 = load i32, ptr %13, align 4
  %54 = call ptr @proto_tree_add_item(ptr noundef %50, i32 noundef %51, ptr noundef %52, i32 noundef %53, i32 noundef 2, i32 noundef 0)
  %55 = load i32, ptr %13, align 4
  %56 = add i32 %55, 2
  store i32 %56, ptr %13, align 4
  %57 = load ptr, ptr %10, align 8
  %58 = load i32, ptr @hf_ip_opt_sec_rfc791_tcc, align 4
  %59 = load ptr, ptr %6, align 8
  %60 = load i32, ptr %13, align 4
  %61 = call ptr @proto_tree_add_item(ptr noundef %57, i32 noundef %58, ptr noundef %59, i32 noundef %60, i32 noundef 3, i32 noundef 0)
  %62 = load i32, ptr %13, align 4
  store i32 %62, ptr %5, align 4
  store i32 1, ptr %15, align 4
  br label %129

63:                                               ; preds = %27
  br label %64

64:                                               ; preds = %63, %4
  %65 = load ptr, ptr %10, align 8
  %66 = load i32, ptr @hf_ip_opt_sec_cl, align 4
  %67 = load ptr, ptr %6, align 8
  %68 = load i32, ptr %13, align 4
  %69 = call ptr @proto_tree_add_item(ptr noundef %65, i32 noundef %66, ptr noundef %67, i32 noundef %68, i32 noundef 1, i32 noundef 0)
  %70 = load i32, ptr %13, align 4
  %71 = add i32 %70, 1
  store i32 %71, ptr %13, align 4
  %72 = load i32, ptr %13, align 4
  %73 = load i32, ptr %14, align 4
  %74 = icmp uge i32 %72, %73
  br i1 %74, label %75, label %77

75:                                               ; preds = %64
  %76 = load i32, ptr %13, align 4
  store i32 %76, ptr %5, align 4
  store i32 1, ptr %15, align 4
  br label %129

77:                                               ; preds = %64
  %78 = load ptr, ptr %6, align 8
  %79 = load i32, ptr %13, align 4
  %80 = call zeroext i8 @tvb_get_uint8(ptr noundef %78, i32 noundef %79)
  %81 = zext i8 %80 to i32
  store i32 %81, ptr %12, align 4
  %82 = load ptr, ptr %10, align 8
  %83 = load ptr, ptr %6, align 8
  %84 = load i32, ptr %13, align 4
  %85 = load i32, ptr @hf_ip_opt_sec_prot_auth_flags, align 4
  %86 = load i32, ptr @ett_ip_opt_sec_prot_auth_flags, align 4
  %87 = call ptr @proto_tree_add_bitmask(ptr noundef %82, ptr noundef %83, i32 noundef %84, i32 noundef %85, i32 noundef %86, ptr noundef @ip_opt_sec_prot_auth_fields_byte_1, i32 noundef 0)
  %88 = load i32, ptr %13, align 4
  %89 = add i32 %88, 1
  store i32 %89, ptr %13, align 4
  br label %90

90:                                               ; preds = %106, %77
  %91 = load i32, ptr %12, align 4
  %92 = and i32 %91, 1
  %93 = icmp ne i32 %92, 0
  br i1 %93, label %94, label %119

94:                                               ; preds = %90
  %95 = load i32, ptr %12, align 4
  %96 = and i32 %95, 1
  %97 = icmp ne i32 %96, 0
  br i1 %97, label %98, label %106

98:                                               ; preds = %94
  %99 = load i32, ptr %13, align 4
  %100 = load i32, ptr %14, align 4
  %101 = icmp eq i32 %99, %100
  br i1 %101, label %102, label %106

102:                                              ; preds = %98
  %103 = load ptr, ptr %7, align 8
  %104 = load ptr, ptr %11, align 8
  %105 = call ptr @expert_add_info(ptr noundef %103, ptr noundef %104, ptr noundef @ei_ip_opt_sec_prot_auth_fti)
  br label %119

106:                                              ; preds = %98, %94
  %107 = load ptr, ptr %6, align 8
  %108 = load i32, ptr %13, align 4
  %109 = call zeroext i8 @tvb_get_uint8(ptr noundef %107, i32 noundef %108)
  %110 = zext i8 %109 to i32
  store i32 %110, ptr %12, align 4
  %111 = load ptr, ptr %10, align 8
  %112 = load ptr, ptr %6, align 8
  %113 = load i32, ptr %13, align 4
  %114 = load i32, ptr @hf_ip_opt_sec_prot_auth_flags, align 4
  %115 = load i32, ptr @ett_ip_opt_sec_prot_auth_flags, align 4
  %116 = call ptr @proto_tree_add_bitmask(ptr noundef %111, ptr noundef %112, i32 noundef %113, i32 noundef %114, i32 noundef %115, ptr noundef @ip_opt_sec_prot_auth_fields_byte_n, i32 noundef 0)
  %117 = load i32, ptr %13, align 4
  %118 = add i32 %117, 1
  store i32 %118, ptr %13, align 4
  br label %90, !llvm.loop !8

119:                                              ; preds = %102, %90
  %120 = load i32, ptr %13, align 4
  %121 = load i32, ptr %14, align 4
  %122 = icmp ult i32 %120, %121
  br i1 %122, label %123, label %127

123:                                              ; preds = %119
  %124 = load ptr, ptr %7, align 8
  %125 = load ptr, ptr %11, align 8
  %126 = call ptr @expert_add_info(ptr noundef %124, ptr noundef %125, ptr noundef @ei_ip_extraneous_data)
  br label %127

127:                                              ; preds = %123, %119
  %128 = load i32, ptr %13, align 4
  store i32 %128, ptr %5, align 4
  store i32 1, ptr %15, align 4
  br label %129

129:                                              ; preds = %127, %75, %35
  call void @llvm.lifetime.end.p0(i64 4, ptr %14) #12
  call void @llvm.lifetime.end.p0(i64 4, ptr %13) #12
  call void @llvm.lifetime.end.p0(i64 4, ptr %12) #12
  call void @llvm.lifetime.end.p0(i64 8, ptr %11) #12
  call void @llvm.lifetime.end.p0(i64 8, ptr %10) #12
  %130 = load i32, ptr %5, align 4
  ret i32 %130
}