; Function Attrs: null_pointer_is_valid sspstrong uwtable
define internal i32 @dissect_ipopt_security(ptr noundef %0, ptr noundef %1, ptr noundef %2, ptr readnone captures(none) %3) #1 {
  %5 = alloca ptr, align 8
  call void @llvm.lifetime.start.p0(i64 8, ptr nonnull %5) #9
  %6 = tail call i32 @tvb_reported_length(ptr noundef %0)
  %7 = load i32, ptr @proto_ip_option_security, align 4
  %8 = load i32, ptr @ett_ip_option_sec, align 4
  %9 = call fastcc ptr @ip_var_option_header(ptr noundef %2, ptr noundef %1, ptr noundef %0, i32 noundef %7, i32 noundef %8, ptr noundef nonnull %5, i32 noundef %6)
  %10 = icmp eq i32 %6, 11
  br i1 %10, label %11, label %26

11:                                               ; preds = %4
  %12 = tail call zeroext i16 @tvb_get_ntohs(ptr noundef %0, i32 noundef 2)
  %13 = zext i16 %12 to i32
  %14 = tail call ptr @try_val_to_str(i32 noundef %13, ptr noundef nonnull @secl_rfc791_vals)
  %.not = icmp eq ptr %14, null
  br i1 %.not, label %.thread, label %17

.thread:                                          ; preds = %11
  %15 = load i32, ptr @hf_ip_opt_sec_cl, align 4
  %16 = tail call ptr @proto_tree_add_item(ptr noundef %9, i32 noundef %15, ptr noundef %0, i32 noundef 2, i32 noundef 1, i32 noundef 0)
  br label %30

17:                                               ; preds = %11
  %18 = load i32, ptr @hf_ip_opt_sec_rfc791_sec, align 4
  %19 = tail call ptr @proto_tree_add_item(ptr noundef %9, i32 noundef %18, ptr noundef %0, i32 noundef 2, i32 noundef 2, i32 noundef 0)
  %20 = load i32, ptr @hf_ip_opt_sec_rfc791_comp, align 4
  %21 = tail call ptr @proto_tree_add_item(ptr noundef %9, i32 noundef %20, ptr noundef %0, i32 noundef 4, i32 noundef 2, i32 noundef 0)
  %22 = load i32, ptr @hf_ip_opt_sec_rfc791_hr, align 4
  %23 = tail call ptr @proto_tree_add_item(ptr noundef %9, i32 noundef %22, ptr noundef %0, i32 noundef 6, i32 noundef 2, i32 noundef 0)
  %24 = load i32, ptr @hf_ip_opt_sec_rfc791_tcc, align 4
  %25 = tail call ptr @proto_tree_add_item(ptr noundef %9, i32 noundef %24, ptr noundef %0, i32 noundef 8, i32 noundef 3, i32 noundef 0)
  br label %50

26:                                               ; preds = %4
  %27 = load i32, ptr @hf_ip_opt_sec_cl, align 4
  %28 = tail call ptr @proto_tree_add_item(ptr noundef %9, i32 noundef %27, ptr noundef %0, i32 noundef 2, i32 noundef 1, i32 noundef 0)
  %29 = icmp ult i32 %6, 4
  br i1 %29, label %50, label %30

30:                                               ; preds = %.thread, %26
  %31 = tail call zeroext i8 @tvb_get_uint8(ptr noundef %0, i32 noundef 3)
  %32 = load i32, ptr @hf_ip_opt_sec_prot_auth_flags, align 4
  %33 = load i32, ptr @ett_ip_opt_sec_prot_auth_flags, align 4
  %34 = tail call ptr @proto_tree_add_bitmask(ptr noundef %9, ptr noundef %0, i32 noundef 3, i32 noundef %32, i32 noundef %33, ptr noundef nonnull @ip_opt_sec_prot_auth_fields_byte_1, i32 noundef 0)
  %35 = and i8 %31, 1
  %.not5659 = icmp eq i8 %35, 0
  br i1 %.not5659, label %.loopexit, label %.lr.ph

.lr.ph:                                           ; preds = %30, %39
  %.05360 = phi i32 [ %44, %39 ], [ 4, %30 ]
  %36 = icmp eq i32 %.05360, %6
  br i1 %36, label %.loopexit.thread, label %39

.loopexit.thread:                                 ; preds = %.lr.ph
  %37 = load ptr, ptr %5, align 8
  %38 = tail call ptr @expert_add_info(ptr noundef %1, ptr noundef %37, ptr noundef nonnull @ei_ip_opt_sec_prot_auth_fti)
  br label %50

39:                                               ; preds = %.lr.ph
  %40 = tail call zeroext i8 @tvb_get_uint8(ptr noundef %0, i32 noundef %.05360)
  %41 = load i32, ptr @hf_ip_opt_sec_prot_auth_flags, align 4
  %42 = load i32, ptr @ett_ip_opt_sec_prot_auth_flags, align 4
  %43 = tail call ptr @proto_tree_add_bitmask(ptr noundef %9, ptr noundef %0, i32 noundef %.05360, i32 noundef %41, i32 noundef %42, ptr noundef nonnull @ip_opt_sec_prot_auth_fields_byte_n, i32 noundef 0)
  %44 = add i32 %.05360, 1
  %45 = and i8 %40, 1
  %.not56 = icmp eq i8 %45, 0
  br i1 %.not56, label %.loopexit, label %.lr.ph, !llvm.loop !13

.loopexit:                                        ; preds = %39, %30
  %.05358 = phi i32 [ 4, %30 ], [ %44, %39 ]
  %46 = icmp ult i32 %.05358, %6
  br i1 %46, label %47, label %50

47:                                               ; preds = %.loopexit
  %48 = load ptr, ptr %5, align 8
  %49 = tail call ptr @expert_add_info(ptr noundef %1, ptr noundef %48, ptr noundef nonnull @ei_ip_extraneous_data)
  br label %50

50:                                               ; preds = %.loopexit.thread, %.loopexit, %47, %26, %17
  %.0 = phi i32 [ 8, %17 ], [ 3, %26 ], [ %.05358, %47 ], [ %.05358, %.loopexit ], [ %6, %.loopexit.thread ]
  call void @llvm.lifetime.end.p0(i64 8, ptr nonnull %5) #9
  ret i32 %.0
}